target datalayout = "e-m:e-p270:32:32-p271:32:32-p272:64:64-i64:64-i128:128-f80:128-n8:16:32:64-S128"
target triple = "x86_64-pc-linux-gnu"

%"struct.lean::event_loop_t" = type <{ ptr, %union.pthread_mutex_t, %union.pthread_cond_t, %struct.uv_async_s, %"struct.std::atomic", [4 x i8] }>
%union.pthread_mutex_t = type { %struct.__pthread_mutex_s }
%struct.__pthread_mutex_s = type { i32, i32, i32, i32, i32, i16, i16, %struct.__pthread_internal_list }
%struct.__pthread_internal_list = type { ptr, ptr }
%union.pthread_cond_t = type { %struct.__pthread_cond_s }
%struct.__pthread_cond_s = type { %union.__atomic_wide_counter, %union.__atomic_wide_counter, [2 x i32], [2 x i32], i32, i32, [2 x i32] }
%union.__atomic_wide_counter = type { i64 }
%struct.uv_async_s = type { ptr, ptr, i32, ptr, %struct.uv__queue, %union.anon.1, ptr, i32, ptr, %struct.uv__queue, i32 }
%union.anon.1 = type { [4 x ptr] }
%struct.uv__queue = type { ptr, ptr }
%"struct.std::atomic" = type { %"struct.std::__atomic_base" }
%"struct.std::__atomic_base" = type { i32 }
%"struct.lean::lean_uv_udp_socket_object" = type { ptr, ptr, ptr }
%struct.lean_object = type { i32, i32 }
%struct.lean_ctor_object = type { %struct.lean_object, [0 x ptr] }
%struct.lean_external_object = type { %struct.lean_object, ptr, ptr }

@_ZN4lean9global_evE = external global %"struct.lean::event_loop_t", align 8

; Function Attrs: inlinehint mustprogress nounwind uwtable
define internal noundef ptr @_ZL12lean_to_ctorP11lean_object(ptr noundef %0) #5 {
  %2 = alloca ptr, align 8
  store ptr %0, ptr %2, align 8, !tbaa !3
  %3 = load ptr, ptr %2, align 8, !tbaa !3
  ret ptr %3
}

; Function Attrs: inlinehint mustprogress uwtable
define internal noundef ptr @_ZL23lean_alloc_small_objectj(i32 noundef %0) #7 {
  %2 = alloca i32, align 4
  %3 = alloca ptr, align 8
  %4 = alloca ptr, align 8
  store i32 %0, ptr %2, align 4, !tbaa !32
  call void @lean_inc_heartbeat()
  %5 = load i32, ptr %2, align 4, !tbaa !32
  %6 = zext i32 %5 to i64
  %7 = call noundef i64 @_ZL10lean_alignmm(i64 noundef %6, i64 noundef 8)
  %8 = trunc i64 %7 to i32
  store i32 %8, ptr %2, align 4, !tbaa !32
  call void @llvm.lifetime.start.p0(i64 8, ptr %3) #14
  %9 = load i32, ptr %2, align 4, !tbaa !32
  %10 = zext i32 %9 to i64
  %11 = call noalias ptr @mi_malloc_small(i64 noundef %10) #14
  store ptr %11, ptr %3, align 8, !tbaa !3
  %12 = load ptr, ptr %3, align 8, !tbaa !3
  %13 = icmp eq ptr %12, null
  br i1 %13, label %14, label %15

14:                                               ; preds = %1
  call void @lean_internal_panic_out_of_memory() #15
  unreachable

15:                                               ; preds = %1
  call void @llvm.lifetime.start.p0(i64 8, ptr %4) #14
  %16 = load ptr, ptr %3, align 8, !tbaa !3
  store ptr %16, ptr %4, align 8, !tbaa !3
  %17 = load i32, ptr %2, align 4, !tbaa !32
  %18 = load ptr, ptr %4, align 8, !tbaa !3
  %19 = getelementptr inbounds nuw %struct.lean_object, ptr %18, i32 0, i32 1
  %20 = load i32, ptr %19, align 4
  %21 = and i32 %17, 65535
  %22 = and i32 %20, -65536
  %23 = or i32 %22, %21
  store i32 %23, ptr %19, align 4
  %24 = load ptr, ptr %4, align 8, !tbaa !3
  call void @llvm.lifetime.end.p0(i64 8, ptr %4) #14
  call void @llvm.lifetime.end.p0(i64 8, ptr %3) #14
  ret ptr %24
}

; Function Attrs: inlinehint mustprogress nounwind uwtable
define internal noundef i64 @_ZL10lean_alignmm(i64 noundef %0, i64 noundef %1) #5 {
  %3 = alloca i64, align 8
  %4 = alloca i64, align 8
  store i64 %0, ptr %3, align 8, !tbaa !33
  store i64 %1, ptr %4, align 8, !tbaa !33
  %5 = load i64, ptr %3, align 8, !tbaa !33
  %6 = load i64, ptr %4, align 8, !tbaa !33
  %7 = udiv i64 %5, %6
  %8 = load i64, ptr %4, align 8, !tbaa !33
  %9 = mul i64 %7, %8
  %10 = load i64, ptr %4, align 8, !tbaa !33
  %11 = load i64, ptr %3, align 8, !tbaa !33
  %12 = load i64, ptr %4, align 8, !tbaa !33
  %13 = urem i64 %11, %12
  %14 = icmp ne i64 %13, 0
  %15 = zext i1 %14 to i64
  %16 = mul i64 %10, %15
  %17 = add i64 %9, %16
  ret i64 %17
}

; Function Attrs: inlinehint mustprogress uwtable
define internal noundef ptr @_ZL18lean_ctor_obj_cptrP11lean_object(ptr noundef %0) #7 {
  %2 = alloca ptr, align 8
  store ptr %0, ptr %2, align 8, !tbaa !3
  %3 = load ptr, ptr %2, align 8, !tbaa !3
  %4 = call noundef ptr @_ZL12lean_to_ctorP11lean_object(ptr noundef %3)
  %5 = getelementptr inbounds nuw %struct.lean_ctor_object, ptr %4, i32 0, i32 1
  %6 = getelementptr inbounds [0 x ptr], ptr %5, i64 0, i64 0
  ret ptr %6
}

; Function Attrs: inlinehint mustprogress nounwind uwtable
define internal void @_ZL18lean_set_st_headerP11lean_objectjj(ptr noundef %0, i32 noundef %1, i32 noundef %2) #5 {
  %4 = alloca ptr, align 8
  %5 = alloca i32, align 4
  %6 = alloca i32, align 4
  store ptr %0, ptr %4, align 8, !tbaa !3
  store i32 %1, ptr %5, align 4, !tbaa !32
  store i32 %2, ptr %6, align 4, !tbaa !32
  %7 = load ptr, ptr %4, align 8, !tbaa !3
  %8 = getelementptr inbounds nuw %struct.lean_object, ptr %7, i32 0, i32 0
  store i32 1, ptr %8, align 4, !tbaa !79
  %9 = load i32, ptr %5, align 4, !tbaa !32
  %10 = load ptr, ptr %4, align 8, !tbaa !3
  %11 = getelementptr inbounds nuw %struct.lean_object, ptr %10, i32 0, i32 1
  %12 = load i32, ptr %11, align 4
  %13 = and i32 %9, 255
  %14 = shl i32 %13, 24
  %15 = and i32 %12, 16777215
  %16 = or i32 %15, %14
  store i32 %16, ptr %11, align 4
  %17 = load i32, ptr %6, align 4, !tbaa !32
  %18 = load ptr, ptr %4, align 8, !tbaa !3
  %19 = getelementptr inbounds nuw %struct.lean_object, ptr %18, i32 0, i32 1
  %20 = load i32, ptr %19, align 4
  %21 = and i32 %17, 255
  %22 = shl i32 %21, 16
  %23 = and i32 %20, -16711681
  %24 = or i32 %23, %22
  store i32 %24, ptr %19, align 4
  ret void
}

; Function Attrs: inlinehint mustprogress uwtable
define internal noundef ptr @_ZL22lean_alloc_ctor_memoryj(i32 noundef %0) #7 {
  %2 = alloca i32, align 4
  %3 = alloca i32, align 4
  %4 = alloca ptr, align 8
  %5 = alloca ptr, align 8
  store i32 %0, ptr %2, align 4, !tbaa !32
  call void @llvm.lifetime.start.p0(i64 4, ptr %3) #14
  %6 = load i32, ptr %2, align 4, !tbaa !32
  %7 = zext i32 %6 to i64
  %8 = call noundef i64 @_ZL10lean_alignmm(i64 noundef %7, i64 noundef 8)
  %9 = trunc i64 %8 to i32
  store i32 %9, ptr %3, align 4, !tbaa !32
  call void @llvm.lifetime.start.p0(i64 8, ptr %4) #14
  %10 = load i32, ptr %2, align 4, !tbaa !32
  %11 = call noundef ptr @_ZL23lean_alloc_small_objectj(i32 noundef %10)
  store ptr %11, ptr %4, align 8, !tbaa !3
  %12 = load i32, ptr %3, align 4, !tbaa !32
  %13 = load i32, ptr %2, align 4, !tbaa !32
  %14 = icmp ugt i32 %12, %13
  br i1 %14, label %15, label %22

15:                                               ; preds = %1
  call void @llvm.lifetime.start.p0(i64 8, ptr %5) #14
  %16 = load ptr, ptr %4, align 8, !tbaa !3
  %17 = load i32, ptr %3, align 4, !tbaa !32
  %18 = zext i32 %17 to i64
  %19 = getelementptr inbounds nuw i8, ptr %16, i64 %18
  store ptr %19, ptr %5, align 8, !tbaa !77
  %20 = load ptr, ptr %5, align 8, !tbaa !77
  %21 = getelementptr inbounds i64, ptr %20, i64 -1
  store i64 0, ptr %21, align 8, !tbaa !33
  call void @llvm.lifetime.end.p0(i64 8, ptr %5) #14
  br label %22

22:                                               ; preds = %15, %1
  %23 = load ptr, ptr %4, align 8, !tbaa !3
  call void @llvm.lifetime.end.p0(i64 8, ptr %4) #14
  call void @llvm.lifetime.end.p0(i64 4, ptr %3) #14
  ret ptr %23
}

; Function Attrs: inlinehint mustprogress nounwind uwtable
define internal noundef ptr @_ZL16lean_to_externalP11lean_object(ptr noundef %0) #5 {
  %2 = alloca ptr, align 8
  store ptr %0, ptr %2, align 8, !tbaa !3
  %3 = load ptr, ptr %2, align 8, !tbaa !3
  ret ptr %3
}

; Function Attrs: inlinehint mustprogress uwtable
define internal void @_ZL13lean_ctor_setP11lean_objectjS0_(ptr noundef %0, i32 noundef %1, ptr noundef %2) #7 {
  %4 = alloca ptr, align 8
  %5 = alloca i32, align 4
  %6 = alloca ptr, align 8
  store ptr %0, ptr %4, align 8, !tbaa !3
  store i32 %1, ptr %5, align 4, !tbaa !32
  store ptr %2, ptr %6, align 8, !tbaa !3
  %7 = load ptr, ptr %6, align 8, !tbaa !3
  %8 = load ptr, ptr %4, align 8, !tbaa !3
  %9 = call noundef ptr @_ZL18lean_ctor_obj_cptrP11lean_object(ptr noundef %8)
  %10 = load i32, ptr %5, align 4, !tbaa !32
  %11 = zext i32 %10 to i64
  %12 = getelementptr inbounds nuw ptr, ptr %9, i64 %11
  store ptr %7, ptr %12, align 8, !tbaa !3
  ret void
}

; Function Attrs: inlinehint mustprogress uwtable
define internal noundef ptr @_ZL15lean_alloc_ctorjjj(i32 noundef %0, i32 noundef %1, i32 noundef %2) #7 {
  %4 = alloca i32, align 4
  %5 = alloca i32, align 4
  %6 = alloca i32, align 4
  %7 = alloca ptr, align 8
  store i32 %0, ptr %4, align 4, !tbaa !32
  store i32 %1, ptr %5, align 4, !tbaa !32
  store i32 %2, ptr %6, align 4, !tbaa !32
  call void @llvm.lifetime.start.p0(i64 8, ptr %7) #14
  %8 = load i32, ptr %5, align 4, !tbaa !32
  %9 = zext i32 %8 to i64
  %10 = mul i64 8, %9
  %11 = add i64 8, %10
  %12 = load i32, ptr %6, align 4, !tbaa !32
  %13 = zext i32 %12 to i64
  %14 = add i64 %11, %13
  %15 = trunc i64 %14 to i32
  %16 = call noundef ptr @_ZL22lean_alloc_ctor_memoryj(i32 noundef %15)
  store ptr %16, ptr %7, align 8, !tbaa !3
  %17 = load ptr, ptr %7, align 8, !tbaa !3
  %18 = load i32, ptr %4, align 4, !tbaa !32
  %19 = load i32, ptr %5, align 4, !tbaa !32
  call void @_ZL18lean_set_st_headerP11lean_objectjj(ptr noundef %17, i32 noundef %18, i32 noundef %19)
  %20 = load ptr, ptr %7, align 8, !tbaa !3
  call void @llvm.lifetime.end.p0(i64 8, ptr %7) #14
  ret ptr %20
}

; Function Attrs: inlinehint mustprogress uwtable
define internal noundef ptr @_ZL22lean_get_external_dataP11lean_object(ptr noundef %0) #7 {
  %2 = alloca ptr, align 8
  store ptr %0, ptr %2, align 8, !tbaa !3
  %3 = load ptr, ptr %2, align 8, !tbaa !3
  %4 = call noundef ptr @_ZL16lean_to_externalP11lean_object(ptr noundef %3)
  %5 = getelementptr inbounds nuw %struct.lean_external_object, ptr %4, i32 0, i32 2
  %6 = load ptr, ptr %5, align 8, !tbaa !83
  ret ptr %6
}

; Function Attrs: inlinehint mustprogress uwtable
define internal noundef ptr @_ZL20lean_io_result_mk_okP11lean_object(ptr noundef %0) #7 {
  %2 = alloca ptr, align 8
  %3 = alloca ptr, align 8
  store ptr %0, ptr %2, align 8, !tbaa !3
  call void @llvm.lifetime.start.p0(i64 8, ptr %3) #14
  %4 = call noundef ptr @_ZL15lean_alloc_ctorjjj(i32 noundef 0, i32 noundef 2, i32 noundef 0)
  store ptr %4, ptr %3, align 8, !tbaa !3
  %5 = load ptr, ptr %3, align 8, !tbaa !3
  %6 = load ptr, ptr %2, align 8, !tbaa !3
  call void @_ZL13lean_ctor_setP11lean_objectjS0_(ptr noundef %5, i32 noundef 0, ptr noundef %6)
  %7 = load ptr, ptr %3, align 8, !tbaa !3
  %8 = call noundef ptr @_ZL8lean_boxm(i64 noundef 0)
  call void @_ZL13lean_ctor_setP11lean_objectjS0_(ptr noundef %7, i32 noundef 1, ptr noundef %8)
  %9 = load ptr, ptr %3, align 8, !tbaa !3
  call void @llvm.lifetime.end.p0(i64 8, ptr %3) #14
  ret ptr %9
}

; Function Attrs: inlinehint mustprogress nounwind uwtable
define internal noundef ptr @_ZL8lean_boxm(i64 noundef %0) #5 {
  %2 = alloca i64, align 8
  store i64 %0, ptr %2, align 8, !tbaa !33
  %3 = load i64, ptr %2, align 8, !tbaa !33
  %4 = shl i64 %3, 1
  %5 = or i64 %4, 1
  %6 = inttoptr i64 %5 to ptr
  ret ptr %6
}

; Function Attrs: inlinehint mustprogress uwtable
define internal noundef ptr @_ZL23lean_io_result_mk_errorP11lean_object(ptr noundef %0) #7 {
  %2 = alloca ptr, align 8
  %3 = alloca ptr, align 8
  store ptr %0, ptr %2, align 8, !tbaa !3
  call void @llvm.lifetime.start.p0(i64 8, ptr %3) #14
  %4 = call noundef ptr @_ZL15lean_alloc_ctorjjj(i32 noundef 1, i32 noundef 2, i32 noundef 0)
  store ptr %4, ptr %3, align 8, !tbaa !3
  %5 = load ptr, ptr %3, align 8, !tbaa !3
  %6 = load ptr, ptr %2, align 8, !tbaa !3
  call void @_ZL13lean_ctor_setP11lean_objectjS0_(ptr noundef %5, i32 noundef 0, ptr noundef %6)
  %7 = load ptr, ptr %3, align 8, !tbaa !3
  %8 = call noundef ptr @_ZL8lean_boxm(i64 noundef 0)
  call void @_ZL13lean_ctor_setP11lean_objectjS0_(ptr noundef %7, i32 noundef 1, ptr noundef %8)
  %9 = load ptr, ptr %3, align 8, !tbaa !3
  call void @llvm.lifetime.end.p0(i64 8, ptr %3) #14
  ret ptr %9
}

; Function Attrs: inlinehint mustprogress uwtable
define internal noundef ptr @_ZN4leanL21lean_to_uv_udp_socketEP11lean_object(ptr noundef %0) #7 {
  %2 = alloca ptr, align 8
  store ptr %0, ptr %2, align 8, !tbaa !3
  %3 = load ptr, ptr %2, align 8, !tbaa !3
  %4 = call noundef ptr @_ZL22lean_get_external_dataP11lean_object(ptr noundef %3)
  ret ptr %4
}

; Function Attrs: mustprogress uwtable
define ptr @lean_uv_udp_set_multicast_ttl(ptr noundef %0, i32 noundef %1, ptr noundef %2) #0 {
  %4 = alloca ptr, align 8
  %5 = alloca ptr, align 8
  %6 = alloca i32, align 4
  %7 = alloca ptr, align 8
  %8 = alloca ptr, align 8
  %9 = alloca i32, align 4
  %10 = alloca i32, align 4
  store ptr %0, ptr %5, align 8, !tbaa !3
  store i32 %1, ptr %6, align 4, !tbaa !32
  store ptr %2, ptr %7, align 8, !tbaa !3
  call void @llvm.lifetime.start.p0(i64 8, ptr %8) #14
  %11 = load ptr, ptr %5, align 8, !tbaa !3
  %12 = call noundef ptr @_ZN4leanL21lean_to_uv_udp_socketEP11lean_object(ptr noundef %11)
  store ptr %12, ptr %8, align 8, !tbaa !3
  call void @_ZN4lean15event_loop_lockEPNS_12event_loop_tE(ptr noundef @_ZN4lean9global_evE)
  call void @llvm.lifetime.start.p0(i64 4, ptr %9) #14
  %13 = load ptr, ptr %8, align 8, !tbaa !3
  %14 = getelementptr inbounds nuw %"struct.lean::lean_uv_udp_socket_object", ptr %13, i32 0, i32 0
  %15 = load ptr, ptr %14, align 8, !tbaa !11
  %16 = load i32, ptr %6, align 4, !tbaa !32
  %17 = call i32 @uv_udp_set_multicast_ttl(ptr noundef %15, i32 noundef %16)
  store i32 %17, ptr %9, align 4, !tbaa !32
  call void @_ZN4lean17event_loop_unlockEPNS_12event_loop_tE(ptr noundef @_ZN4lean9global_evE)
  %18 = load i32, ptr %9, align 4, !tbaa !32
  %19 = icmp slt i32 %18, 0
  br i1 %19, label %20, label %24

20:                                               ; preds = %3
  %21 = load i32, ptr %9, align 4, !tbaa !32
  %22 = call ptr @lean_decode_uv_error(i32 noundef %21, ptr noundef null)
  %23 = call noundef ptr @_ZL23lean_io_result_mk_errorP11lean_object(ptr noundef %22)
  store ptr %23, ptr %4, align 8
  store i32 1, ptr %10, align 4
  br label %27

24:                                               ; preds = %3
  %25 = call noundef ptr @_ZL8lean_boxm(i64 noundef 0)
  %26 = call noundef ptr @_ZL20lean_io_result_mk_okP11lean_object(ptr noundef %25)
  store ptr %26, ptr %4, align 8
  store i32 1, ptr %10, align 4
  br label %27

27:                                               ; preds = %24, %20
  call void @llvm.lifetime.end.p0(i64 4, ptr %9) #14
  call void @llvm.lifetime.end.p0(i64 8, ptr %8) #14
  %28 = load ptr, ptr %4, align 8
  ret ptr %28
}